; Function Attrs: mustprogress nofree norecurse nosync nounwind willreturn memory(argmem: read) uwtable
define hidden noundef i32 @_ZN3smt9theory_bv14final_check_ehEv(ptr nocapture noundef nonnull readonly align 8 dereferenceable(1048) %this) unnamed_addr #11 align 2 {
entry:
  %m_approximates_large_bvs = getelementptr inbounds i8, ptr %this, i64 1016
  %0 = load i8, ptr %m_approximates_large_bvs, align 8
  %1 = shl i8 %0, 1
  %2 = and i8 %1, 2
  %. = zext nneg i8 %2 to i32
  ret i32 %.
}